target datalayout = "e-m:e-p270:32:32-p271:32:32-p272:64:64-i64:64-i128:128-f80:128-n8:16:32:64-S128"
target triple = "x86_64-pc-linux-gnu"

%class.anon = type { i32, i32, ptr }

; Function Attrs: inlinehint mustprogress nounwind uwtable
define internal noundef zeroext i1 @"_ZZN3igl28max_faces_stopping_conditionERiiiRSt8functionIFbRKN5Eigen6MatrixIdLin1ELin1ELi0ELin1ELin1EEERKNS3_IiLin1ELin1ELi0ELin1ELin1EEES9_RKNS3_IiLin1ELi1ELi0ELin1ELi1EEES9_S9_RKSt14priority_queueISt5tupleIJdiiEESt6vectorISF_SaISF_EESt7greaterISF_EESC_S6_iiiiiEEENK3$_0clES6_S9_S9_SC_S9_S9_SN_SC_S6_iiiii"(ptr noundef nonnull align 8 dereferenceable(16) %0, ptr noundef nonnull align 8 dereferenceable(24) %1, ptr noundef nonnull align 8 dereferenceable(24) %2, ptr noundef nonnull align 8 dereferenceable(24) %3, ptr noundef nonnull align 8 dereferenceable(16) %4, ptr noundef nonnull align 8 dereferenceable(24) %5, ptr noundef nonnull align 8 dereferenceable(24) %6, ptr noundef nonnull align 8 dereferenceable(25) %7, ptr noundef nonnull align 8 dereferenceable(16) %8, ptr noundef nonnull align 8 dereferenceable(24) %9, i32 noundef %10, i32 noundef %11, i32 noundef %12, i32 noundef %13, i32 noundef %14) #7 align 2 {
  %16 = alloca ptr, align 8
  %17 = alloca ptr, align 8
  %18 = alloca ptr, align 8
  %19 = alloca ptr, align 8
  %20 = alloca ptr, align 8
  %21 = alloca ptr, align 8
  %22 = alloca ptr, align 8
  %23 = alloca ptr, align 8
  %24 = alloca ptr, align 8
  %25 = alloca ptr, align 8
  %26 = alloca i32, align 4
  %27 = alloca i32, align 4
  %28 = alloca i32, align 4
  %29 = alloca i32, align 4
  %30 = alloca i32, align 4
  store ptr %0, ptr %16, align 8, !tbaa !24
  store ptr %1, ptr %17, align 8, !tbaa !38
  store ptr %2, ptr %18, align 8, !tbaa !40
  store ptr %3, ptr %19, align 8, !tbaa !40
  store ptr %4, ptr %20, align 8, !tbaa !42
  store ptr %5, ptr %21, align 8, !tbaa !40
  store ptr %6, ptr %22, align 8, !tbaa !40
  store ptr %7, ptr %23, align 8, !tbaa !44
  store ptr %8, ptr %24, align 8, !tbaa !42
  store ptr %9, ptr %25, align 8, !tbaa !38
  store i32 %10, ptr %26, align 4, !tbaa !17
  store i32 %11, ptr %27, align 4, !tbaa !17
  store i32 %12, ptr %28, align 4, !tbaa !17
  store i32 %13, ptr %29, align 4, !tbaa !17
  store i32 %14, ptr %30, align 4, !tbaa !17
  %31 = load ptr, ptr %16, align 8
  %32 = load i32, ptr %29, align 4, !tbaa !17
  %33 = getelementptr inbounds nuw %class.anon, ptr %31, i32 0, i32 0
  %34 = load i32, ptr %33, align 8, !tbaa !21
  %35 = icmp slt i32 %32, %34
  br i1 %35, label %36, label %41

36:                                               ; preds = %15
  %37 = getelementptr inbounds nuw %class.anon, ptr %31, i32 0, i32 2
  %38 = load ptr, ptr %37, align 8, !tbaa !51
  %39 = load i32, ptr %38, align 4, !tbaa !17
  %40 = sub nsw i32 %39, 1
  store i32 %40, ptr %38, align 4, !tbaa !17
  br label %41

41:                                               ; preds = %36, %15
  %42 = load i32, ptr %30, align 4, !tbaa !17
  %43 = getelementptr inbounds nuw %class.anon, ptr %31, i32 0, i32 0
  %44 = load i32, ptr %43, align 8, !tbaa !21
  %45 = icmp slt i32 %42, %44
  br i1 %45, label %46, label %51

46:                                               ; preds = %41
  %47 = getelementptr inbounds nuw %class.anon, ptr %31, i32 0, i32 2
  %48 = load ptr, ptr %47, align 8, !tbaa !51
  %49 = load i32, ptr %48, align 4, !tbaa !17
  %50 = sub nsw i32 %49, 1
  store i32 %50, ptr %48, align 4, !tbaa !17
  br label %51

51:                                               ; preds = %46, %41
  %52 = getelementptr inbounds nuw %class.anon, ptr %31, i32 0, i32 2
  %53 = load ptr, ptr %52, align 8, !tbaa !51
  %54 = load i32, ptr %53, align 4, !tbaa !17
  %55 = getelementptr inbounds nuw %class.anon, ptr %31, i32 0, i32 1
  %56 = load i32, ptr %55, align 4, !tbaa !23
  %57 = icmp sle i32 %54, %56
  ret i1 %57
}

; Function Attrs: mustprogress nounwind uwtable
define linkonce_odr dso_local noundef ptr @_ZNKSt9_Any_data9_M_accessEv(ptr noundef nonnull align 8 dereferenceable(16) %0) #1 comdat align 2 {
  %2 = alloca ptr, align 8
  store ptr %0, ptr %2, align 8, !tbaa !36
  %3 = load ptr, ptr %2, align 8
  %4 = getelementptr inbounds [16 x i8], ptr %3, i64 0, i64 0
  ret ptr %4
}

; Function Attrs: mustprogress uwtable
define internal noundef zeroext i1 @"_ZSt13__invoke_implIbRZN3igl28max_faces_stopping_conditionERiiiRSt8functionIFbRKN5Eigen6MatrixIdLin1ELin1ELi0ELin1ELin1EEERKNS4_IiLin1ELin1ELi0ELin1ELin1EEESA_RKNS4_IiLin1ELi1ELi0ELin1ELi1EEESA_SA_RKSt14priority_queueISt5tupleIJdiiEESt6vectorISG_SaISG_EESt7greaterISG_EESD_S7_iiiiiEEE3$_0JS7_SA_SA_SD_SA_SA_SO_SD_S7_iiiiiEET_St14__invoke_otherOT0_DpOT1_"(ptr noundef nonnull align 8 dereferenceable(16) %0, ptr noundef nonnull align 8 dereferenceable(24) %1, ptr noundef nonnull align 8 dereferenceable(24) %2, ptr noundef nonnull align 8 dereferenceable(24) %3, ptr noundef nonnull align 8 dereferenceable(16) %4, ptr noundef nonnull align 8 dereferenceable(24) %5, ptr noundef nonnull align 8 dereferenceable(24) %6, ptr noundef nonnull align 8 dereferenceable(25) %7, ptr noundef nonnull align 8 dereferenceable(16) %8, ptr noundef nonnull align 8 dereferenceable(24) %9, ptr noundef nonnull align 4 dereferenceable(4) %10, ptr noundef nonnull align 4 dereferenceable(4) %11, ptr noundef nonnull align 4 dereferenceable(4) %12, ptr noundef nonnull align 4 dereferenceable(4) %13, ptr noundef nonnull align 4 dereferenceable(4) %14) #3 {
  %16 = alloca ptr, align 8
  %17 = alloca ptr, align 8
  %18 = alloca ptr, align 8
  %19 = alloca ptr, align 8
  %20 = alloca ptr, align 8
  %21 = alloca ptr, align 8
  %22 = alloca ptr, align 8
  %23 = alloca ptr, align 8
  %24 = alloca ptr, align 8
  %25 = alloca ptr, align 8
  %26 = alloca ptr, align 8
  %27 = alloca ptr, align 8
  %28 = alloca ptr, align 8
  %29 = alloca ptr, align 8
  %30 = alloca ptr, align 8
  store ptr %0, ptr %16, align 8, !tbaa !24
  store ptr %1, ptr %17, align 8, !tbaa !38
  store ptr %2, ptr %18, align 8, !tbaa !40
  store ptr %3, ptr %19, align 8, !tbaa !40
  store ptr %4, ptr %20, align 8, !tbaa !42
  store ptr %5, ptr %21, align 8, !tbaa !40
  store ptr %6, ptr %22, align 8, !tbaa !40
  store ptr %7, ptr %23, align 8, !tbaa !44
  store ptr %8, ptr %24, align 8, !tbaa !42
  store ptr %9, ptr %25, align 8, !tbaa !38
  store ptr %10, ptr %26, align 8, !tbaa !15
  store ptr %11, ptr %27, align 8, !tbaa !15
  store ptr %12, ptr %28, align 8, !tbaa !15
  store ptr %13, ptr %29, align 8, !tbaa !15
  store ptr %14, ptr %30, align 8, !tbaa !15
  %31 = load ptr, ptr %16, align 8, !tbaa !24
  %32 = load ptr, ptr %17, align 8, !tbaa !38
  %33 = load ptr, ptr %18, align 8, !tbaa !40
  %34 = load ptr, ptr %19, align 8, !tbaa !40
  %35 = load ptr, ptr %20, align 8, !tbaa !42
  %36 = load ptr, ptr %21, align 8, !tbaa !40
  %37 = load ptr, ptr %22, align 8, !tbaa !40
  %38 = load ptr, ptr %23, align 8, !tbaa !44
  %39 = load ptr, ptr %24, align 8, !tbaa !42
  %40 = load ptr, ptr %25, align 8, !tbaa !38
  %41 = load ptr, ptr %26, align 8, !tbaa !15
  %42 = load i32, ptr %41, align 4, !tbaa !17
  %43 = load ptr, ptr %27, align 8, !tbaa !15
  %44 = load i32, ptr %43, align 4, !tbaa !17
  %45 = load ptr, ptr %28, align 8, !tbaa !15
  %46 = load i32, ptr %45, align 4, !tbaa !17
  %47 = load ptr, ptr %29, align 8, !tbaa !15
  %48 = load i32, ptr %47, align 4, !tbaa !17
  %49 = load ptr, ptr %30, align 8, !tbaa !15
  %50 = load i32, ptr %49, align 4, !tbaa !17
  %51 = call noundef zeroext i1 @"_ZZN3igl28max_faces_stopping_conditionERiiiRSt8functionIFbRKN5Eigen6MatrixIdLin1ELin1ELi0ELin1ELin1EEERKNS3_IiLin1ELin1ELi0ELin1ELin1EEES9_RKNS3_IiLin1ELi1ELi0ELin1ELi1EEES9_S9_RKSt14priority_queueISt5tupleIJdiiEESt6vectorISF_SaISF_EESt7greaterISF_EESC_S6_iiiiiEEENK3$_0clES6_S9_S9_SC_S9_S9_SN_SC_S6_iiiii"(ptr noundef nonnull align 8 dereferenceable(16) %31, ptr noundef nonnull align 8 dereferenceable(24) %32, ptr noundef nonnull align 8 dereferenceable(24) %33, ptr noundef nonnull align 8 dereferenceable(24) %34, ptr noundef nonnull align 8 dereferenceable(16) %35, ptr noundef nonnull align 8 dereferenceable(24) %36, ptr noundef nonnull align 8 dereferenceable(24) %37, ptr noundef nonnull align 8 dereferenceable(25) %38, ptr noundef nonnull align 8 dereferenceable(16) %39, ptr noundef nonnull align 8 dereferenceable(24) %40, i32 noundef %42, i32 noundef %44, i32 noundef %46, i32 noundef %48, i32 noundef %50)
  ret i1 %51
}

; Function Attrs: mustprogress nounwind uwtable
define internal noundef nonnull align 8 dereferenceable(16) ptr @"_ZNKSt9_Any_data9_M_accessIZN3igl28max_faces_stopping_conditionERiiiRSt8functionIFbRKN5Eigen6MatrixIdLin1ELin1ELi0ELin1ELin1EEERKNS5_IiLin1ELin1ELi0ELin1ELin1EEESB_RKNS5_IiLin1ELi1ELi0ELin1ELi1EEESB_SB_RKSt14priority_queueISt5tupleIJdiiEESt6vectorISH_SaISH_EESt7greaterISH_EESE_S8_iiiiiEEE3$_0EERKT_v"(ptr noundef nonnull align 8 dereferenceable(16) %0) #1 align 2 {
  %2 = alloca ptr, align 8
  store ptr %0, ptr %2, align 8, !tbaa !36
  %3 = load ptr, ptr %2, align 8
  %4 = call noundef ptr @_ZNKSt9_Any_data9_M_accessEv(ptr noundef nonnull align 8 dereferenceable(16) %3) #8
  ret ptr %4
}

; Function Attrs: mustprogress uwtable
define internal noundef zeroext i1 @"_ZSt10__invoke_rIbRZN3igl28max_faces_stopping_conditionERiiiRSt8functionIFbRKN5Eigen6MatrixIdLin1ELin1ELi0ELin1ELin1EEERKNS4_IiLin1ELin1ELi0ELin1ELin1EEESA_RKNS4_IiLin1ELi1ELi0ELin1ELi1EEESA_SA_RKSt14priority_queueISt5tupleIJdiiEESt6vectorISG_SaISG_EESt7greaterISG_EESD_S7_iiiiiEEE3$_0JS7_SA_SA_SD_SA_SA_SO_SD_S7_iiiiiEENSt9enable_ifIX16is_invocable_r_vIT_T0_DpT1_EESV_E4typeEOSW_DpOSX_"(ptr noundef nonnull align 8 dereferenceable(16) %0, ptr noundef nonnull align 8 dereferenceable(24) %1, ptr noundef nonnull align 8 dereferenceable(24) %2, ptr noundef nonnull align 8 dereferenceable(24) %3, ptr noundef nonnull align 8 dereferenceable(16) %4, ptr noundef nonnull align 8 dereferenceable(24) %5, ptr noundef nonnull align 8 dereferenceable(24) %6, ptr noundef nonnull align 8 dereferenceable(25) %7, ptr noundef nonnull align 8 dereferenceable(16) %8, ptr noundef nonnull align 8 dereferenceable(24) %9, ptr noundef nonnull align 4 dereferenceable(4) %10, ptr noundef nonnull align 4 dereferenceable(4) %11, ptr noundef nonnull align 4 dereferenceable(4) %12, ptr noundef nonnull align 4 dereferenceable(4) %13, ptr noundef nonnull align 4 dereferenceable(4) %14) #3 {
  %16 = alloca ptr, align 8
  %17 = alloca ptr, align 8
  %18 = alloca ptr, align 8
  %19 = alloca ptr, align 8
  %20 = alloca ptr, align 8
  %21 = alloca ptr, align 8
  %22 = alloca ptr, align 8
  %23 = alloca ptr, align 8
  %24 = alloca ptr, align 8
  %25 = alloca ptr, align 8
  %26 = alloca ptr, align 8
  %27 = alloca ptr, align 8
  %28 = alloca ptr, align 8
  %29 = alloca ptr, align 8
  %30 = alloca ptr, align 8
  store ptr %0, ptr %16, align 8, !tbaa !24
  store ptr %1, ptr %17, align 8, !tbaa !38
  store ptr %2, ptr %18, align 8, !tbaa !40
  store ptr %3, ptr %19, align 8, !tbaa !40
  store ptr %4, ptr %20, align 8, !tbaa !42
  store ptr %5, ptr %21, align 8, !tbaa !40
  store ptr %6, ptr %22, align 8, !tbaa !40
  store ptr %7, ptr %23, align 8, !tbaa !44
  store ptr %8, ptr %24, align 8, !tbaa !42
  store ptr %9, ptr %25, align 8, !tbaa !38
  store ptr %10, ptr %26, align 8, !tbaa !15
  store ptr %11, ptr %27, align 8, !tbaa !15
  store ptr %12, ptr %28, align 8, !tbaa !15
  store ptr %13, ptr %29, align 8, !tbaa !15
  store ptr %14, ptr %30, align 8, !tbaa !15
  %31 = load ptr, ptr %16, align 8, !tbaa !24
  %32 = load ptr, ptr %17, align 8, !tbaa !38
  %33 = load ptr, ptr %18, align 8, !tbaa !40
  %34 = load ptr, ptr %19, align 8, !tbaa !40
  %35 = load ptr, ptr %20, align 8, !tbaa !42
  %36 = load ptr, ptr %21, align 8, !tbaa !40
  %37 = load ptr, ptr %22, align 8, !tbaa !40
  %38 = load ptr, ptr %23, align 8, !tbaa !44
  %39 = load ptr, ptr %24, align 8, !tbaa !42
  %40 = load ptr, ptr %25, align 8, !tbaa !38
  %41 = load ptr, ptr %26, align 8, !tbaa !15
  %42 = load ptr, ptr %27, align 8, !tbaa !15
  %43 = load ptr, ptr %28, align 8, !tbaa !15
  %44 = load ptr, ptr %29, align 8, !tbaa !15
  %45 = load ptr, ptr %30, align 8, !tbaa !15
  %46 = call noundef zeroext i1 @"_ZSt13__invoke_implIbRZN3igl28max_faces_stopping_conditionERiiiRSt8functionIFbRKN5Eigen6MatrixIdLin1ELin1ELi0ELin1ELin1EEERKNS4_IiLin1ELin1ELi0ELin1ELin1EEESA_RKNS4_IiLin1ELi1ELi0ELin1ELi1EEESA_SA_RKSt14priority_queueISt5tupleIJdiiEESt6vectorISG_SaISG_EESt7greaterISG_EESD_S7_iiiiiEEE3$_0JS7_SA_SA_SD_SA_SA_SO_SD_S7_iiiiiEET_St14__invoke_otherOT0_DpOT1_"(ptr noundef nonnull align 8 dereferenceable(16) %31, ptr noundef nonnull align 8 dereferenceable(24) %32, ptr noundef nonnull align 8 dereferenceable(24) %33, ptr noundef nonnull align 8 dereferenceable(24) %34, ptr noundef nonnull align 8 dereferenceable(16) %35, ptr noundef nonnull align 8 dereferenceable(24) %36, ptr noundef nonnull align 8 dereferenceable(24) %37, ptr noundef nonnull align 8 dereferenceable(25) %38, ptr noundef nonnull align 8 dereferenceable(16) %39, ptr noundef nonnull align 8 dereferenceable(24) %40, ptr noundef nonnull align 4 dereferenceable(4) %41, ptr noundef nonnull align 4 dereferenceable(4) %42, ptr noundef nonnull align 4 dereferenceable(4) %43, ptr noundef nonnull align 4 dereferenceable(4) %44, ptr noundef nonnull align 4 dereferenceable(4) %45)
  ret i1 %46
}

; Function Attrs: mustprogress nounwind uwtable
define internal noundef ptr @"_ZNSt14_Function_base13_Base_managerIZN3igl28max_faces_stopping_conditionERiiiRSt8functionIFbRKN5Eigen6MatrixIdLin1ELin1ELi0ELin1ELin1EEERKNS5_IiLin1ELin1ELi0ELin1ELin1EEESB_RKNS5_IiLin1ELi1ELi0ELin1ELi1EEESB_SB_RKSt14priority_queueISt5tupleIJdiiEESt6vectorISH_SaISH_EESt7greaterISH_EESE_S8_iiiiiEEE3$_0E14_M_get_pointerERKSt9_Any_data"(ptr noundef nonnull align 8 dereferenceable(16) %0) #1 align 2 {
  %2 = alloca ptr, align 8
  %3 = alloca ptr, align 8
  store ptr %0, ptr %2, align 8, !tbaa !36
  call void @llvm.lifetime.start.p0(i64 8, ptr %3) #8
  %4 = load ptr, ptr %2, align 8, !tbaa !36
  %5 = call noundef nonnull align 8 dereferenceable(16) ptr @"_ZNKSt9_Any_data9_M_accessIZN3igl28max_faces_stopping_conditionERiiiRSt8functionIFbRKN5Eigen6MatrixIdLin1ELin1ELi0ELin1ELin1EEERKNS5_IiLin1ELin1ELi0ELin1ELin1EEESB_RKNS5_IiLin1ELi1ELi0ELin1ELi1EEESB_SB_RKSt14priority_queueISt5tupleIJdiiEESt6vectorISH_SaISH_EESt7greaterISH_EESE_S8_iiiiiEEE3$_0EERKT_v"(ptr noundef nonnull align 8 dereferenceable(16) %4) #8
  store ptr %5, ptr %3, align 8, !tbaa !24
  %6 = load ptr, ptr %3, align 8, !tbaa !24
  call void @llvm.lifetime.end.p0(i64 8, ptr %3) #8
  ret ptr %6
}

; Function Attrs: mustprogress uwtable
define internal noundef zeroext i1 @"_ZNSt17_Function_handlerIFbRKN5Eigen6MatrixIdLin1ELin1ELi0ELin1ELin1EEERKNS1_IiLin1ELin1ELi0ELin1ELin1EEES7_RKNS1_IiLin1ELi1ELi0ELin1ELi1EEES7_S7_RKSt14priority_queueISt5tupleIJdiiEESt6vectorISD_SaISD_EESt7greaterISD_EESA_S4_iiiiiEZN3igl28max_faces_stopping_conditionERiiiRSt8functionISM_EE3$_0E9_M_invokeERKSt9_Any_dataS4_S7_S7_SA_S7_S7_SL_SA_S4_OiSX_SX_SX_SX_"(ptr noundef nonnull align 8 dereferenceable(16) %0, ptr noundef nonnull align 8 dereferenceable(24) %1, ptr noundef nonnull align 8 dereferenceable(24) %2, ptr noundef nonnull align 8 dereferenceable(24) %3, ptr noundef nonnull align 8 dereferenceable(16) %4, ptr noundef nonnull align 8 dereferenceable(24) %5, ptr noundef nonnull align 8 dereferenceable(24) %6, ptr noundef nonnull align 8 dereferenceable(25) %7, ptr noundef nonnull align 8 dereferenceable(16) %8, ptr noundef nonnull align 8 dereferenceable(24) %9, ptr noundef nonnull align 4 dereferenceable(4) %10, ptr noundef nonnull align 4 dereferenceable(4) %11, ptr noundef nonnull align 4 dereferenceable(4) %12, ptr noundef nonnull align 4 dereferenceable(4) %13, ptr noundef nonnull align 4 dereferenceable(4) %14) #3 align 2 {
  %16 = alloca ptr, align 8
  %17 = alloca ptr, align 8
  %18 = alloca ptr, align 8
  %19 = alloca ptr, align 8
  %20 = alloca ptr, align 8
  %21 = alloca ptr, align 8
  %22 = alloca ptr, align 8
  %23 = alloca ptr, align 8
  %24 = alloca ptr, align 8
  %25 = alloca ptr, align 8
  %26 = alloca ptr, align 8
  %27 = alloca ptr, align 8
  %28 = alloca ptr, align 8
  %29 = alloca ptr, align 8
  %30 = alloca ptr, align 8
  store ptr %0, ptr %16, align 8, !tbaa !36
  store ptr %1, ptr %17, align 8, !tbaa !38
  store ptr %2, ptr %18, align 8, !tbaa !40
  store ptr %3, ptr %19, align 8, !tbaa !40
  store ptr %4, ptr %20, align 8, !tbaa !42
  store ptr %5, ptr %21, align 8, !tbaa !40
  store ptr %6, ptr %22, align 8, !tbaa !40
  store ptr %7, ptr %23, align 8, !tbaa !44
  store ptr %8, ptr %24, align 8, !tbaa !42
  store ptr %9, ptr %25, align 8, !tbaa !38
  store ptr %10, ptr %26, align 8, !tbaa !15
  store ptr %11, ptr %27, align 8, !tbaa !15
  store ptr %12, ptr %28, align 8, !tbaa !15
  store ptr %13, ptr %29, align 8, !tbaa !15
  store ptr %14, ptr %30, align 8, !tbaa !15
  %31 = load ptr, ptr %16, align 8, !tbaa !36
  %32 = call noundef ptr @"_ZNSt14_Function_base13_Base_managerIZN3igl28max_faces_stopping_conditionERiiiRSt8functionIFbRKN5Eigen6MatrixIdLin1ELin1ELi0ELin1ELin1EEERKNS5_IiLin1ELin1ELi0ELin1ELin1EEESB_RKNS5_IiLin1ELi1ELi0ELin1ELi1EEESB_SB_RKSt14priority_queueISt5tupleIJdiiEESt6vectorISH_SaISH_EESt7greaterISH_EESE_S8_iiiiiEEE3$_0E14_M_get_pointerERKSt9_Any_data"(ptr noundef nonnull align 8 dereferenceable(16) %31) #8
  %33 = load ptr, ptr %17, align 8, !tbaa !38
  %34 = load ptr, ptr %18, align 8, !tbaa !40
  %35 = load ptr, ptr %19, align 8, !tbaa !40
  %36 = load ptr, ptr %20, align 8, !tbaa !42
  %37 = load ptr, ptr %21, align 8, !tbaa !40
  %38 = load ptr, ptr %22, align 8, !tbaa !40
  %39 = load ptr, ptr %23, align 8, !tbaa !44
  %40 = load ptr, ptr %24, align 8, !tbaa !42
  %41 = load ptr, ptr %25, align 8, !tbaa !38
  %42 = load ptr, ptr %26, align 8, !tbaa !15
  %43 = load ptr, ptr %27, align 8, !tbaa !15
  %44 = load ptr, ptr %28, align 8, !tbaa !15
  %45 = load ptr, ptr %29, align 8, !tbaa !15
  %46 = load ptr, ptr %30, align 8, !tbaa !15
  %47 = call noundef zeroext i1 @"_ZSt10__invoke_rIbRZN3igl28max_faces_stopping_conditionERiiiRSt8functionIFbRKN5Eigen6MatrixIdLin1ELin1ELi0ELin1ELin1EEERKNS4_IiLin1ELin1ELi0ELin1ELin1EEESA_RKNS4_IiLin1ELi1ELi0ELin1ELi1EEESA_SA_RKSt14priority_queueISt5tupleIJdiiEESt6vectorISG_SaISG_EESt7greaterISG_EESD_S7_iiiiiEEE3$_0JS7_SA_SA_SD_SA_SA_SO_SD_S7_iiiiiEENSt9enable_ifIX16is_invocable_r_vIT_T0_DpT1_EESV_E4typeEOSW_DpOSX_"(ptr noundef nonnull align 8 dereferenceable(16) %32, ptr noundef nonnull align 8 dereferenceable(24) %33, ptr noundef nonnull align 8 dereferenceable(24) %34, ptr noundef nonnull align 8 dereferenceable(24) %35, ptr noundef nonnull align 8 dereferenceable(16) %36, ptr noundef nonnull align 8 dereferenceable(24) %37, ptr noundef nonnull align 8 dereferenceable(24) %38, ptr noundef nonnull align 8 dereferenceable(25) %39, ptr noundef nonnull align 8 dereferenceable(16) %40, ptr noundef nonnull align 8 dereferenceable(24) %41, ptr noundef nonnull align 4 dereferenceable(4) %42, ptr noundef nonnull align 4 dereferenceable(4) %43, ptr noundef nonnull align 4 dereferenceable(4) %44, ptr noundef nonnull align 4 dereferenceable(4) %45, ptr noundef nonnull align 4 dereferenceable(4) %46)
  ret i1 %47
}