; Function Attrs: mustprogress nofree norecurse nosync nounwind willreturn memory(readwrite, inaccessiblemem: none) uwtable
define internal noundef zeroext i1 @"_ZNSt17_Function_handlerIFbRKN5Eigen6MatrixIdLin1ELin1ELi0ELin1ELin1EEERKNS1_IiLin1ELin1ELi0ELin1ELin1EEES7_RKNS1_IiLin1ELi1ELi0ELin1ELi1EEES7_S7_RKSt14priority_queueISt5tupleIJdiiEESt6vectorISD_SaISD_EESt7greaterISD_EESA_S4_iiiiiEZN3igl28max_faces_stopping_conditionERiiiRSt8functionISM_EE3$_0E9_M_invokeERKSt9_Any_dataS4_S7_S7_SA_S7_S7_SL_SA_S4_OiSX_SX_SX_SX_"(ptr noundef nonnull readonly align 8 captures(none) dereferenceable(16) %0, ptr nonnull readnone align 8 captures(none) %1, ptr nonnull readnone align 8 captures(none) %2, ptr nonnull readnone align 8 captures(none) %3, ptr nonnull readnone align 8 captures(none) %4, ptr nonnull readnone align 8 captures(none) %5, ptr nonnull readnone align 8 captures(none) %6, ptr nonnull readnone align 8 captures(none) %7, ptr nonnull readnone align 8 captures(none) %8, ptr nonnull readnone align 8 captures(none) %9, ptr nonnull readonly align 4 captures(none) %10, ptr nonnull readonly align 4 captures(none) %11, ptr nonnull readonly align 4 captures(none) %12, ptr noundef nonnull readonly align 4 captures(none) dereferenceable(4) %13, ptr noundef nonnull readonly align 4 captures(none) dereferenceable(4) %14) #5 align 2 {
  %.val17 = load i32, ptr %13, align 4, !tbaa !10
  %.val18 = load i32, ptr %14, align 4, !tbaa !10
  %16 = load i32, ptr %0, align 8, !tbaa !12
  %17 = icmp slt i32 %.val17, %16
  %18 = getelementptr inbounds nuw i8, ptr %0, i64 8
  %19 = load ptr, ptr %18, align 8, !tbaa !15
  %20 = load i32, ptr %19, align 4, !tbaa !10
  br i1 %17, label %21, label %._crit_edge.i.i

21:                                               ; preds = %15
  %22 = add nsw i32 %20, -1
  store i32 %22, ptr %19, align 4, !tbaa !10
  %.pre.i.i.i = load i32, ptr %0, align 8, !tbaa !12
  br label %._crit_edge.i.i

._crit_edge.i.i:                                  ; preds = %21, %15
  %23 = phi i32 [ %22, %21 ], [ %20, %15 ]
  %24 = phi i32 [ %.pre.i.i.i, %21 ], [ %16, %15 ]
  %25 = icmp slt i32 %.val18, %24
  br i1 %25, label %26, label %"_ZSt10__invoke_rIbRZN3igl28max_faces_stopping_conditionERiiiRSt8functionIFbRKN5Eigen6MatrixIdLin1ELin1ELi0ELin1ELin1EEERKNS4_IiLin1ELin1ELi0ELin1ELin1EEESA_RKNS4_IiLin1ELi1ELi0ELin1ELi1EEESA_SA_RKSt14priority_queueISt5tupleIJdiiEESt6vectorISG_SaISG_EESt7greaterISG_EESD_S7_iiiiiEEE3$_0JS7_SA_SA_SD_SA_SA_SO_SD_S7_iiiiiEENSt9enable_ifIX16is_invocable_r_vIT_T0_DpT1_EESV_E4typeEOSW_DpOSX_.exit"

26:                                               ; preds = %._crit_edge.i.i
  %27 = add nsw i32 %23, -1
  store i32 %27, ptr %19, align 4, !tbaa !10
  br label %"_ZSt10__invoke_rIbRZN3igl28max_faces_stopping_conditionERiiiRSt8functionIFbRKN5Eigen6MatrixIdLin1ELin1ELi0ELin1ELin1EEERKNS4_IiLin1ELin1ELi0ELin1ELin1EEESA_RKNS4_IiLin1ELi1ELi0ELin1ELi1EEESA_SA_RKSt14priority_queueISt5tupleIJdiiEESt6vectorISG_SaISG_EESt7greaterISG_EESD_S7_iiiiiEEE3$_0JS7_SA_SA_SD_SA_SA_SO_SD_S7_iiiiiEENSt9enable_ifIX16is_invocable_r_vIT_T0_DpT1_EESV_E4typeEOSW_DpOSX_.exit"

"_ZSt10__invoke_rIbRZN3igl28max_faces_stopping_conditionERiiiRSt8functionIFbRKN5Eigen6MatrixIdLin1ELin1ELi0ELin1ELin1EEERKNS4_IiLin1ELin1ELi0ELin1ELin1EEESA_RKNS4_IiLin1ELi1ELi0ELin1ELi1EEESA_SA_RKSt14priority_queueISt5tupleIJdiiEESt6vectorISG_SaISG_EESt7greaterISG_EESD_S7_iiiiiEEE3$_0JS7_SA_SA_SD_SA_SA_SO_SD_S7_iiiiiEENSt9enable_ifIX16is_invocable_r_vIT_T0_DpT1_EESV_E4typeEOSW_DpOSX_.exit": ; preds = %._crit_edge.i.i, %26
  %28 = phi i32 [ %27, %26 ], [ %23, %._crit_edge.i.i ]
  %29 = getelementptr inbounds nuw i8, ptr %0, i64 4
  %30 = load i32, ptr %29, align 4, !tbaa !16
  %31 = icmp sle i32 %28, %30
  ret i1 %31
}